target datalayout = "e-m:e-p270:32:32-p271:32:32-p272:64:64-i64:64-i128:128-f80:128-n8:16:32:64-S128"
target triple = "x86_64-pc-linux-gnu"

%struct.VP9Frame = type { %struct.ProgressFrame, ptr, ptr, ptr, i32, ptr }
%struct.ProgressFrame = type { ptr, ptr }

; Function Attrs: nounwind uwtable
define internal void @vp9_frame_unref(ptr noundef %0) #0 {
  %2 = alloca ptr, align 8
  store ptr %0, ptr %2, align 8, !tbaa !98
  %3 = load ptr, ptr %2, align 8, !tbaa !98
  %4 = getelementptr inbounds nuw %struct.VP9Frame, ptr %3, i32 0, i32 0
  call void @ff_progress_frame_unref(ptr noundef %4)
  %5 = load ptr, ptr %2, align 8, !tbaa !98
  %6 = getelementptr inbounds nuw %struct.VP9Frame, ptr %5, i32 0, i32 1
  call void @av_refstruct_unref(ptr noundef %6)
  %7 = load ptr, ptr %2, align 8, !tbaa !98
  %8 = getelementptr inbounds nuw %struct.VP9Frame, ptr %7, i32 0, i32 5
  call void @av_refstruct_unref(ptr noundef %8)
  %9 = load ptr, ptr %2, align 8, !tbaa !98
  %10 = getelementptr inbounds nuw %struct.VP9Frame, ptr %9, i32 0, i32 2
  store ptr null, ptr %10, align 8, !tbaa !82
  ret void
}