; Function Attrs: nounwind uwtable
define internal fastcc void @vp9_frame_unref(ptr noundef %0) unnamed_addr #0 {
  tail call void @ff_progress_frame_unref(ptr noundef %0) #12
  %2 = getelementptr inbounds nuw i8, ptr %0, i64 16
  tail call void @av_refstruct_unref(ptr noundef nonnull %2) #12
  %3 = getelementptr inbounds nuw i8, ptr %0, i64 48
  tail call void @av_refstruct_unref(ptr noundef nonnull %3) #12
  %4 = getelementptr inbounds nuw i8, ptr %0, i64 24
  store ptr null, ptr %4, align 8, !tbaa !33
  ret void
}